; Function Attrs: mustprogress uwtable
define internal void @_ZN32pxrInternal_v0_24__pxrReserved__12_GLOBAL__N_131_DataSourceAuthoredAttributeNewERKNS_12UsdAttributeERKNS_32UsdImagingDataSourceStageGlobalsERKNS_7SdfPathERKNS_19HdDataSourceLocatorE(ptr dead_on_unwind noalias writable sret(%"class.std::shared_ptr.103") align 8 %0, ptr noundef nonnull align 8 dereferenceable(32) %1, ptr noundef nonnull align 8 dereferenceable(8) %2, ptr noundef nonnull align 4 dereferenceable(8) %3, ptr noundef nonnull align 8 dereferenceable(56) %4) #0 personality ptr @__gxx_personality_v0 {
  %6 = alloca %"class.pxrInternal_v0_24__pxrReserved__::UsdAttributeQuery", align 8
  call void @_ZN32pxrInternal_v0_24__pxrReserved__17UsdAttributeQueryC1ERKNS_12UsdAttributeE(ptr noundef nonnull align 8 dereferenceable(120) %6, ptr noundef nonnull align 8 dereferenceable(32) %1)
  %7 = invoke noundef zeroext i1 @_ZNK32pxrInternal_v0_24__pxrReserved__17UsdAttributeQuery16HasAuthoredValueEv(ptr noundef nonnull align 8 dereferenceable(120) %6)
          to label %8 unwind label %10

8:                                                ; preds = %5
  br i1 %7, label %12, label %9

9:                                                ; preds = %8
  call void @llvm.memset.p0.i64(ptr noundef nonnull align 8 dereferenceable(16) %0, i8 0, i64 16, i1 false)
  br label %13

10:                                               ; preds = %12, %5
  %11 = landingpad { ptr, i32 }
          cleanup
  call void @_ZN32pxrInternal_v0_24__pxrReserved__17UsdAttributeQueryD2Ev(ptr noundef nonnull align 8 dereferenceable(120) %6) #21
  resume { ptr, i32 } %11

12:                                               ; preds = %8
  invoke void @_ZN32pxrInternal_v0_24__pxrReserved__32UsdImagingDataSourceAttributeNewERKNS_17UsdAttributeQueryERKNS_32UsdImagingDataSourceStageGlobalsERKNS_7SdfPathERKNS_19HdDataSourceLocatorE(ptr dead_on_unwind writable sret(%"class.std::shared_ptr.103") align 8 %0, ptr noundef nonnull align 8 dereferenceable(120) %6, ptr noundef nonnull align 8 dereferenceable(8) %2, ptr noundef nonnull align 4 dereferenceable(8) %3, ptr noundef nonnull align 8 dereferenceable(56) %4)
          to label %13 unwind label %10

13:                                               ; preds = %12, %9
  call void @_ZN32pxrInternal_v0_24__pxrReserved__17UsdAttributeQueryD2Ev(ptr noundef nonnull align 8 dereferenceable(120) %6) #21
  ret void
}